target datalayout = "e-m:e-p270:32:32-p271:32:32-p272:64:64-i64:64-i128:128-f80:128-n8:16:32:64-S128"
target triple = "x86_64-pc-linux-gnu"

%struct._e_guid_t = type { i32, i16, i16, [8 x i8] }
%struct._dcerpc_info = type { ptr, i32, i64, i8, i8, i8, i32, i32, i32, i32, i32, i32, i32, i32, ptr, ptr, ptr, ptr, %struct.anon }
%struct.anon = type { i8, ptr, ptr, ptr, i8 }
%struct._dcerpc_call_value = type { %struct._e_guid_t, i16, %struct._e_guid_t, i16, i32, %struct.nstime_t, i32, i32, ptr, ptr, ptr, i32 }
%struct.nstime_t = type { i64, i32 }

@ett_srvsvc_srvsvc_NetSrvInfo1549 = internal global i32 0, align 4
@hf_srvsvc_srvsvc_NetSrvInfo1549_networkerrortreshold = internal global i32 0, align 4

; Function Attrs: null_pointer_is_valid sspstrong uwtable
define internal i32 @srvsvc_dissect_element_NetSrvInfo1549_networkerrortreshold(ptr noundef %0, i32 noundef %1, ptr noundef %2, ptr noundef %3, ptr noundef %4, ptr noundef %5) #0 {
  %7 = alloca ptr, align 8
  %8 = alloca i32, align 4
  %9 = alloca ptr, align 8
  %10 = alloca ptr, align 8
  %11 = alloca ptr, align 8
  %12 = alloca ptr, align 8
  store ptr %0, ptr %7, align 8
  store i32 %1, ptr %8, align 4
  store ptr %2, ptr %9, align 8
  store ptr %3, ptr %10, align 8
  store ptr %4, ptr %11, align 8
  store ptr %5, ptr %12, align 8
  %13 = load ptr, ptr %7, align 8
  %14 = load i32, ptr %8, align 4
  %15 = load ptr, ptr %9, align 8
  %16 = load ptr, ptr %10, align 8
  %17 = load ptr, ptr %11, align 8
  %18 = load ptr, ptr %12, align 8
  %19 = load i32, ptr @hf_srvsvc_srvsvc_NetSrvInfo1549_networkerrortreshold, align 4
  %20 = call i32 @PIDL_dissect_uint32(ptr noundef %13, i32 noundef %14, ptr noundef %15, ptr noundef %16, ptr noundef %17, ptr noundef %18, i32 noundef %19, i32 noundef 0)
  store i32 %20, ptr %8, align 4
  %21 = load i32, ptr %8, align 4
  ret i32 %21
}

; Function Attrs: null_pointer_is_valid sspstrong uwtable
define hidden i32 @srvsvc_dissect_struct_NetSrvInfo1549(ptr noundef %0, i32 noundef %1, ptr noundef %2, ptr noundef %3, ptr noundef %4, ptr noundef %5, i32 noundef %6, i32 noundef %7) #0 {
  %9 = alloca ptr, align 8
  %10 = alloca i32, align 4
  %11 = alloca ptr, align 8
  %12 = alloca ptr, align 8
  %13 = alloca ptr, align 8
  %14 = alloca ptr, align 8
  %15 = alloca i32, align 4
  %16 = alloca i32, align 4
  %17 = alloca ptr, align 8
  %18 = alloca ptr, align 8
  %19 = alloca i32, align 4
  store ptr %0, ptr %9, align 8
  store i32 %1, ptr %10, align 4
  store ptr %2, ptr %11, align 8
  store ptr %3, ptr %12, align 8
  store ptr %4, ptr %13, align 8
  store ptr %5, ptr %14, align 8
  store i32 %6, ptr %15, align 4
  store i32 %7, ptr %16, align 4
  call void @llvm.lifetime.start.p0(i64 8, ptr %17) #4
  store ptr null, ptr %17, align 8
  call void @llvm.lifetime.start.p0(i64 8, ptr %18) #4
  store ptr null, ptr %18, align 8
  call void @llvm.lifetime.start.p0(i64 4, ptr %19) #4
  %20 = load ptr, ptr %13, align 8
  %21 = getelementptr inbounds nuw %struct._dcerpc_info, ptr %20, i32 0, i32 4
  %22 = load i8, ptr %21, align 1, !range !6, !noundef !7
  %23 = trunc i8 %22 to i1
  br i1 %23, label %33, label %24

24:                                               ; preds = %8
  %25 = load i32, ptr %10, align 4
  %26 = and i32 %25, 3
  %27 = icmp ne i32 %26, 0
  br i1 %27, label %28, label %32

28:                                               ; preds = %24
  %29 = load i32, ptr %10, align 4
  %30 = and i32 %29, -4
  %31 = add i32 %30, 4
  store i32 %31, ptr %10, align 4
  br label %32

32:                                               ; preds = %28, %24
  br label %33

33:                                               ; preds = %32, %8
  %34 = load i32, ptr %10, align 4
  store i32 %34, ptr %19, align 4
  %35 = load ptr, ptr %12, align 8
  %36 = icmp ne ptr %35, null
  br i1 %36, label %37, label %46

37:                                               ; preds = %33
  %38 = load ptr, ptr %12, align 8
  %39 = load i32, ptr %15, align 4
  %40 = load ptr, ptr %9, align 8
  %41 = load i32, ptr %10, align 4
  %42 = call ptr @proto_tree_add_item(ptr noundef %38, i32 noundef %39, ptr noundef %40, i32 noundef %41, i32 noundef -1, i32 noundef 0)
  store ptr %42, ptr %17, align 8
  %43 = load ptr, ptr %17, align 8
  %44 = load i32, ptr @ett_srvsvc_srvsvc_NetSrvInfo1549, align 4
  %45 = call ptr @proto_item_add_subtree(ptr noundef %43, i32 noundef %44)
  store ptr %45, ptr %18, align 8
  br label %46

46:                                               ; preds = %37, %33
  %47 = load ptr, ptr %9, align 8
  %48 = load i32, ptr %10, align 4
  %49 = load ptr, ptr %11, align 8
  %50 = load ptr, ptr %18, align 8
  %51 = load ptr, ptr %13, align 8
  %52 = load ptr, ptr %14, align 8
  %53 = call i32 @srvsvc_dissect_element_NetSrvInfo1549_networkerrortreshold(ptr noundef %47, i32 noundef %48, ptr noundef %49, ptr noundef %50, ptr noundef %51, ptr noundef %52)
  store i32 %53, ptr %10, align 4
  %54 = load ptr, ptr %17, align 8
  %55 = load i32, ptr %10, align 4
  %56 = load i32, ptr %19, align 4
  %57 = sub i32 %55, %56
  call void @proto_item_set_len(ptr noundef %54, i32 noundef %57)
  %58 = load ptr, ptr %13, align 8
  %59 = getelementptr inbounds nuw %struct._dcerpc_info, ptr %58, i32 0, i32 14
  %60 = load ptr, ptr %59, align 8
  %61 = getelementptr inbounds nuw %struct._dcerpc_call_value, ptr %60, i32 0, i32 11
  %62 = load i32, ptr %61, align 8
  %63 = and i32 %62, 1
  %64 = icmp ne i32 %63, 0
  br i1 %64, label %65, label %80

65:                                               ; preds = %46
  %66 = load ptr, ptr %13, align 8
  %67 = getelementptr inbounds nuw %struct._dcerpc_info, ptr %66, i32 0, i32 4
  %68 = load i8, ptr %67, align 1, !range !6, !noundef !7
  %69 = trunc i8 %68 to i1
  br i1 %69, label %79, label %70

70:                                               ; preds = %65
  %71 = load i32, ptr %10, align 4
  %72 = and i32 %71, 3
  %73 = icmp ne i32 %72, 0
  br i1 %73, label %74, label %78

74:                                               ; preds = %70
  %75 = load i32, ptr %10, align 4
  %76 = and i32 %75, -4
  %77 = add i32 %76, 4
  store i32 %77, ptr %10, align 4
  br label %78

78:                                               ; preds = %74, %70
  br label %79

79:                                               ; preds = %78, %65
  br label %80

80:                                               ; preds = %79, %46
  %81 = load i32, ptr %10, align 4
  call void @llvm.lifetime.end.p0(i64 4, ptr %19) #4
  call void @llvm.lifetime.end.p0(i64 8, ptr %18) #4
  call void @llvm.lifetime.end.p0(i64 8, ptr %17) #4
  ret i32 %81
}